(dp0
S'dpgutenberg'
p1
(lp2
(i__main__
TonerState
p3
(dp4
S'errorDescription'
p5
NsS'error'
p6
I00
sS'capacity'
p7
I24000
sS'description'
p8
S'Black Cartridge HP CC364X'
p9
sS'remaining'
p10
I1200
sba(i__main__
TonerState
p11
(dp12
g5
Nsg6
I00
sg7
I225000
sg8
S'Maintenance Kit HP 110V-CB388A, 220V-CB389A'
p13
sg10
I184090
sbasS'dpCalvin'
p14
(lp15
(i__main__
TonerState
p16
(dp17
g5
Nsg6
I00
sg7
I24000
sg8
S'Black Cartridge HP CC364X'
p18
sg10
I19680
sba(i__main__
TonerState
p19
(dp20
g5
Nsg6
I00
sg7
I225000
sg8
S'Maintenance Kit HP 110V-CB388A, 220V-CB389A'
p21
sg10
I0
sbas.